target datalayout = "e-m:e-p270:32:32-p271:32:32-p272:64:64-i64:64-i128:128-f80:128-n8:16:32:64-S128"
target triple = "x86_64-pc-linux-gnu"

%struct.bio_st = type { ptr, ptr, ptr, i32, i32, i32, i32, i32, i32, ptr, ptr, i64, i64 }

; Function Attrs: nounwind uwtable
define hidden ptr @BIO_push(ptr noundef %0, ptr noundef %1) #0 {
  %3 = alloca ptr, align 8
  %4 = alloca ptr, align 8
  %5 = alloca ptr, align 8
  %6 = alloca ptr, align 8
  %7 = alloca i32, align 4
  store ptr %0, ptr %4, align 8, !tbaa !11
  store ptr %1, ptr %5, align 8, !tbaa !11
  call void @llvm.lifetime.start.p0(i64 8, ptr %6) #9
  %8 = load ptr, ptr %4, align 8, !tbaa !11
  %9 = icmp eq ptr %8, null
  br i1 %9, label %10, label %12

10:                                               ; preds = %2
  %11 = load ptr, ptr %4, align 8, !tbaa !11
  store ptr %11, ptr %3, align 8
  store i32 1, ptr %7, align 4
  br label %28

12:                                               ; preds = %2
  %13 = load ptr, ptr %4, align 8, !tbaa !11
  store ptr %13, ptr %6, align 8, !tbaa !11
  br label %14

14:                                               ; preds = %19, %12
  %15 = load ptr, ptr %6, align 8, !tbaa !11
  %16 = getelementptr inbounds nuw %struct.bio_st, ptr %15, i32 0, i32 10
  %17 = load ptr, ptr %16, align 8, !tbaa !27
  %18 = icmp ne ptr %17, null
  br i1 %18, label %19, label %23

19:                                               ; preds = %14
  %20 = load ptr, ptr %6, align 8, !tbaa !11
  %21 = getelementptr inbounds nuw %struct.bio_st, ptr %20, i32 0, i32 10
  %22 = load ptr, ptr %21, align 8, !tbaa !27
  store ptr %22, ptr %6, align 8, !tbaa !11
  br label %14, !llvm.loop !42

23:                                               ; preds = %14
  %24 = load ptr, ptr %5, align 8, !tbaa !11
  %25 = load ptr, ptr %6, align 8, !tbaa !11
  %26 = getelementptr inbounds nuw %struct.bio_st, ptr %25, i32 0, i32 10
  store ptr %24, ptr %26, align 8, !tbaa !27
  %27 = load ptr, ptr %4, align 8, !tbaa !11
  store ptr %27, ptr %3, align 8
  store i32 1, ptr %7, align 4
  br label %28

28:                                               ; preds = %23, %10
  call void @llvm.lifetime.end.p0(i64 8, ptr %6) #9
  %29 = load ptr, ptr %3, align 8
  ret ptr %29
}