; Function Attrs: nofree norecurse nosync nounwind memory(readwrite, inaccessiblemem: none) uwtable
define hidden noundef ptr @BIO_push(ptr noundef returned captures(address_is_null, ret: address, provenance) %0, ptr noundef %1) local_unnamed_addr #11 {
  %3 = icmp eq ptr %0, null
  br i1 %3, label %8, label %.preheader

.preheader:                                       ; preds = %2, %.preheader
  %.0 = phi ptr [ %5, %.preheader ], [ %0, %2 ]
  %4 = getelementptr inbounds nuw i8, ptr %.0, i64 56
  %5 = load ptr, ptr %4, align 8, !tbaa !21
  %.not = icmp eq ptr %5, null
  br i1 %.not, label %6, label %.preheader, !llvm.loop !38

6:                                                ; preds = %.preheader
  %7 = getelementptr inbounds nuw i8, ptr %.0, i64 56
  store ptr %1, ptr %7, align 8, !tbaa !21
  br label %8

8:                                                ; preds = %2, %6
  ret ptr %0
}